; Function Attrs: mustprogress nounwind uwtable
define void @_ZN6opencc9DictGroupD2Ev(ptr noundef nonnull align 8 dereferenceable(40) initializes((0, 8)) %0) unnamed_addr #1 align 2 personality ptr @__gxx_personality_v0 {
  store ptr getelementptr inbounds nuw inrange(-16, 56) (i8, ptr @_ZTVN6opencc9DictGroupE, i64 16), ptr %0, align 8, !tbaa !3
  %2 = getelementptr inbounds nuw i8, ptr %0, i64 16
  %3 = load ptr, ptr %2, align 8, !tbaa !6
  %.not8.i.i = icmp eq ptr %3, %2
  br i1 %.not8.i.i, label %_ZNSt7__cxx1110_List_baseISt10shared_ptrIN6opencc4DictEESaIS4_EED2Ev.exit, label %.lr.ph.i.i

.lr.ph.i.i:                                       ; preds = %1, %_ZNSt16allocator_traitsISaISt10_List_nodeISt10shared_ptrIN6opencc4DictEEEEE7destroyIS4_EEvRS6_PT_.exit.i.i
  %.09.i.i = phi ptr [ %4, %_ZNSt16allocator_traitsISaISt10_List_nodeISt10shared_ptrIN6opencc4DictEEEEE7destroyIS4_EEvRS6_PT_.exit.i.i ], [ %3, %1 ]
  %4 = load ptr, ptr %.09.i.i, align 8, !tbaa !6
  %5 = getelementptr inbounds nuw i8, ptr %.09.i.i, i64 24
  %6 = load ptr, ptr %5, align 8, !tbaa !26
  %.not.i.i.i.i.i.i = icmp eq ptr %6, null
  br i1 %.not.i.i.i.i.i.i, label %_ZNSt16allocator_traitsISaISt10_List_nodeISt10shared_ptrIN6opencc4DictEEEEE7destroyIS4_EEvRS6_PT_.exit.i.i, label %7

7:                                                ; preds = %.lr.ph.i.i
  %8 = getelementptr inbounds nuw i8, ptr %6, i64 8
  %9 = load atomic i64, ptr %8 acquire, align 8
  %10 = icmp eq i64 %9, 4294967297
  %11 = trunc i64 %9 to i32
  br i1 %10, label %12, label %20

12:                                               ; preds = %7
  store i32 0, ptr %8, align 8, !tbaa !33
  %13 = getelementptr inbounds nuw i8, ptr %6, i64 12
  store i32 0, ptr %13, align 4, !tbaa !35
  %14 = load ptr, ptr %6, align 8, !tbaa !3
  %15 = getelementptr inbounds nuw i8, ptr %14, i64 16
  %16 = load ptr, ptr %15, align 8
  tail call void %16(ptr noundef nonnull align 8 dereferenceable(16) %6) #23
  %17 = load ptr, ptr %6, align 8, !tbaa !3
  %18 = getelementptr inbounds nuw i8, ptr %17, i64 24
  %19 = load ptr, ptr %18, align 8
  tail call void %19(ptr noundef nonnull align 8 dereferenceable(16) %6) #23
  br label %_ZNSt16allocator_traitsISaISt10_List_nodeISt10shared_ptrIN6opencc4DictEEEEE7destroyIS4_EEvRS6_PT_.exit.i.i

20:                                               ; preds = %7
  %21 = load i8, ptr @__libc_single_threaded, align 1, !tbaa !27
  %.not.i.i.i.i.i.i.i = icmp eq i8 %21, 0
  br i1 %.not.i.i.i.i.i.i.i, label %24, label %22

22:                                               ; preds = %20
  %23 = add nsw i32 %11, -1
  store i32 %23, ptr %8, align 4, !tbaa !28
  br label %_ZN9__gnu_cxx27__exchange_and_add_dispatchEPii.exit.i.i.i.i.i.i.i

24:                                               ; preds = %20
  %25 = atomicrmw volatile add ptr %8, i32 -1 acq_rel, align 4
  br label %_ZN9__gnu_cxx27__exchange_and_add_dispatchEPii.exit.i.i.i.i.i.i.i

_ZN9__gnu_cxx27__exchange_and_add_dispatchEPii.exit.i.i.i.i.i.i.i: ; preds = %24, %22
  %.0.i.i.i.i.i.i.i.i = phi i32 [ %11, %22 ], [ %25, %24 ]
  %26 = icmp eq i32 %.0.i.i.i.i.i.i.i.i, 1
  br i1 %26, label %27, label %_ZNSt16allocator_traitsISaISt10_List_nodeISt10shared_ptrIN6opencc4DictEEEEE7destroyIS4_EEvRS6_PT_.exit.i.i, !prof !36

27:                                               ; preds = %_ZN9__gnu_cxx27__exchange_and_add_dispatchEPii.exit.i.i.i.i.i.i.i
  tail call void @_ZNSt16_Sp_counted_baseILN9__gnu_cxx12_Lock_policyE2EE24_M_release_last_use_coldEv(ptr noundef nonnull align 8 dereferenceable(16) %6) #23
  br label %_ZNSt16allocator_traitsISaISt10_List_nodeISt10shared_ptrIN6opencc4DictEEEEE7destroyIS4_EEvRS6_PT_.exit.i.i

_ZNSt16allocator_traitsISaISt10_List_nodeISt10shared_ptrIN6opencc4DictEEEEE7destroyIS4_EEvRS6_PT_.exit.i.i: ; preds = %27, %_ZN9__gnu_cxx27__exchange_and_add_dispatchEPii.exit.i.i.i.i.i.i.i, %12, %.lr.ph.i.i
  tail call void @_ZdlPvm(ptr noundef nonnull %.09.i.i, i64 noundef 32) #24
  %.not.i.i = icmp eq ptr %4, %2
  br i1 %.not.i.i, label %_ZNSt7__cxx1110_List_baseISt10shared_ptrIN6opencc4DictEESaIS4_EED2Ev.exit, label %.lr.ph.i.i, !llvm.loop !37

_ZNSt7__cxx1110_List_baseISt10shared_ptrIN6opencc4DictEESaIS4_EED2Ev.exit: ; preds = %_ZNSt16allocator_traitsISaISt10_List_nodeISt10shared_ptrIN6opencc4DictEEEEE7destroyIS4_EEvRS6_PT_.exit.i.i, %1
  ret void
}